; Function Attrs: mustprogress uwtable
define noundef ptr @_ZN15RtpStreamDialog19openRtpStreamDialogER7QWidgetR11CaptureFileP7QObject(ptr noundef nonnull align 8 dereferenceable(40) %0, ptr noundef nonnull align 8 dereferenceable(48) %1, ptr noundef %2) local_unnamed_addr #0 align 2 personality ptr @__gxx_personality_v0 {
  %4 = alloca %"class.QMetaObject::Connection", align 8
  %5 = alloca %"class.QMetaObject::Connection", align 8
  %6 = tail call noundef i32 @pthread_mutex_lock(ptr noundef nonnull @_ZN15RtpStreamDialog6mutex_E) #18
  %.not.i.i = icmp eq i32 %6, 0
  br i1 %.not.i.i, label %_ZNSt10lock_guardISt5mutexEC2ERS0_.exit, label %7

7:                                                ; preds = %3
  tail call void @_ZSt20__throw_system_errori(i32 noundef %6) #19
  unreachable

_ZNSt10lock_guardISt5mutexEC2ERS0_.exit:          ; preds = %3
  %8 = load ptr, ptr @_ZN15RtpStreamDialog10pinstance_E, align 8
  %9 = icmp eq ptr %8, null
  br i1 %9, label %10, label %21

10:                                               ; preds = %_ZNSt10lock_guardISt5mutexEC2ERS0_.exit
  %11 = invoke noalias noundef nonnull dereferenceable(360) ptr @_Znwm(i64 noundef 360) #20
          to label %12 unwind label %17

12:                                               ; preds = %10
  invoke void @_ZN15RtpStreamDialogC1ER7QWidgetR11CaptureFile(ptr noundef nonnull align 8 dereferenceable(360) %11, ptr noundef nonnull align 8 dereferenceable(40) %0, ptr noundef nonnull align 8 dereferenceable(48) %1)
          to label %13 unwind label %19

13:                                               ; preds = %12
  store ptr %11, ptr @_ZN15RtpStreamDialog10pinstance_E, align 8
  invoke void @_ZN7QObject7connectEPKS_PKcS1_S3_N2Qt14ConnectionTypeE(ptr dead_on_unwind nonnull writable sret(%"class.QMetaObject::Connection") align 8 %4, ptr noundef nonnull %11, ptr noundef nonnull @.str, ptr noundef %2, ptr noundef nonnull @.str.1, i32 noundef 0)
          to label %14 unwind label %17

14:                                               ; preds = %13
  call void @_ZN11QMetaObject10ConnectionD1Ev(ptr noundef nonnull align 8 dereferenceable(8) %4) #18
  %15 = load ptr, ptr @_ZN15RtpStreamDialog10pinstance_E, align 8
  invoke void @_ZN7QObject7connectEPKS_PKcS1_S3_N2Qt14ConnectionTypeE(ptr dead_on_unwind nonnull writable sret(%"class.QMetaObject::Connection") align 8 %5, ptr noundef %15, ptr noundef nonnull @.str.2, ptr noundef %2, ptr noundef nonnull @.str.3, i32 noundef 0)
          to label %16 unwind label %17

16:                                               ; preds = %14
  call void @_ZN11QMetaObject10ConnectionD1Ev(ptr noundef nonnull align 8 dereferenceable(8) %5) #18
  %.pre = load ptr, ptr @_ZN15RtpStreamDialog10pinstance_E, align 8
  br label %21

17:                                               ; preds = %14, %13, %10
  %18 = landingpad { ptr, i32 }
          cleanup
  br label %24

19:                                               ; preds = %12
  %20 = landingpad { ptr, i32 }
          cleanup
  tail call void @_ZdlPv(ptr noundef nonnull %11) #21
  br label %24

21:                                               ; preds = %16, %_ZNSt10lock_guardISt5mutexEC2ERS0_.exit
  %22 = phi ptr [ %.pre, %16 ], [ %8, %_ZNSt10lock_guardISt5mutexEC2ERS0_.exit ]
  %23 = call noundef i32 @pthread_mutex_unlock(ptr noundef nonnull @_ZN15RtpStreamDialog6mutex_E) #18
  ret ptr %22

24:                                               ; preds = %19, %17
  %.pn = phi { ptr, i32 } [ %18, %17 ], [ %20, %19 ]
  %25 = call noundef i32 @pthread_mutex_unlock(ptr noundef nonnull @_ZN15RtpStreamDialog6mutex_E) #18
  resume { ptr, i32 } %.pn
}